; Function Attrs: mustprogress uwtable
define void @u_setTimeZoneFilesDirectory_77(ptr noundef %0, ptr noundef %1) local_unnamed_addr #1 {
  %3 = alloca %"class.icu_77::StringPiece", align 8
  %4 = load i32, ptr %1, align 4, !tbaa !13
  %5 = icmp slt i32 %4, 1
  br i1 %5, label %6, label %_ZN6icu_7713umtx_initOnceERNS_9UInitOnceEPFvR10UErrorCodeES3_.exit.thread

6:                                                ; preds = %2
  %7 = load atomic i32, ptr @gTimeZoneFilesInitOnce_77 acquire, align 4
  %.not11.i = icmp eq i32 %7, 2
  br i1 %.not11.i, label %12, label %8

8:                                                ; preds = %6
  %9 = tail call noundef signext i8 @_ZN6icu_7720umtx_initImplPreInitERNS_9UInitOnceE(ptr noundef nonnull align 4 dereferenceable(8) @gTimeZoneFilesInitOnce_77)
  %.not12.i = icmp eq i8 %9, 0
  br i1 %.not12.i, label %12, label %10

10:                                               ; preds = %8
  tail call fastcc void @_ZL21TimeZoneDataDirInitFnR10UErrorCode(ptr noundef nonnull align 4 dereferenceable(4) %1)
  %11 = load i32, ptr %1, align 4, !tbaa !13
  store i32 %11, ptr getelementptr inbounds nuw (i8, ptr @gTimeZoneFilesInitOnce_77, i64 4), align 4, !tbaa !45
  tail call void @_ZN6icu_7721umtx_initImplPostInitERNS_9UInitOnceE(ptr noundef nonnull align 4 dereferenceable(8) @gTimeZoneFilesInitOnce_77)
  br label %_ZN6icu_7713umtx_initOnceERNS_9UInitOnceEPFvR10UErrorCodeES3_.exit

12:                                               ; preds = %8, %6
  %13 = load i32, ptr getelementptr inbounds nuw (i8, ptr @gTimeZoneFilesInitOnce_77, i64 4), align 4, !tbaa !45
  %14 = icmp slt i32 %13, 1
  br i1 %14, label %_ZN6icu_7713umtx_initOnceERNS_9UInitOnceEPFvR10UErrorCodeES3_.exit, label %15

15:                                               ; preds = %12
  store i32 %13, ptr %1, align 4, !tbaa !13
  br label %_ZN6icu_7713umtx_initOnceERNS_9UInitOnceEPFvR10UErrorCodeES3_.exit.thread

_ZN6icu_7713umtx_initOnceERNS_9UInitOnceEPFvR10UErrorCodeES3_.exit.thread: ; preds = %2, %15
  call void @llvm.lifetime.start.p0(i64 16, ptr nonnull %3)
  br label %_ZL19setTimeZoneFilesDirPKcR10UErrorCode.exit

_ZN6icu_7713umtx_initOnceERNS_9UInitOnceEPFvR10UErrorCodeES3_.exit: ; preds = %10, %12
  %.pr = load i32, ptr %1, align 4, !tbaa !13
  call void @llvm.lifetime.start.p0(i64 16, ptr nonnull %3)
  %16 = icmp slt i32 %.pr, 1
  br i1 %16, label %17, label %_ZL19setTimeZoneFilesDirPKcR10UErrorCode.exit

17:                                               ; preds = %_ZN6icu_7713umtx_initOnceERNS_9UInitOnceEPFvR10UErrorCodeES3_.exit
  %18 = load ptr, ptr @_ZL23gTimeZoneFilesDirectory, align 8, !tbaa !41
  %19 = getelementptr inbounds nuw i8, ptr %18, i64 56
  store i32 0, ptr %19, align 8, !tbaa !39
  %20 = load ptr, ptr %18, align 8, !tbaa !3
  store i8 0, ptr %20, align 1, !tbaa !21
  call void @_ZN6icu_7711StringPieceC1EPKc(ptr noundef nonnull align 8 dereferenceable(12) %3, ptr noundef %0)
  %21 = load ptr, ptr %3, align 8
  %22 = getelementptr inbounds nuw i8, ptr %3, i64 8
  %23 = load i32, ptr %22, align 8
  %24 = call noundef nonnull align 8 dereferenceable(60) ptr @_ZN6icu_7710CharString6appendEPKciR10UErrorCode(ptr noundef nonnull align 8 dereferenceable(60) %18, ptr noundef %21, i32 noundef %23, ptr noundef nonnull align 4 dereferenceable(4) %1)
  br label %_ZL19setTimeZoneFilesDirPKcR10UErrorCode.exit

_ZL19setTimeZoneFilesDirPKcR10UErrorCode.exit:    ; preds = %_ZN6icu_7713umtx_initOnceERNS_9UInitOnceEPFvR10UErrorCodeES3_.exit.thread, %_ZN6icu_7713umtx_initOnceERNS_9UInitOnceEPFvR10UErrorCodeES3_.exit, %17
  call void @llvm.lifetime.end.p0(i64 16, ptr nonnull %3)
  ret void
}